target datalayout = "e-m:e-p270:32:32-p271:32:32-p272:64:64-i64:64-i128:128-f80:128-n8:16:32:64-S128"
target triple = "x86_64-pc-linux-gnu"

%struct.tMPI_Atomic = type { i32, [60 x i8] }
%struct.tmpi_thread = type { ptr, %struct.recv_envelope_list, ptr, %struct.free_envelope_list, %struct.tMPI_Atomic, %struct.tMPI_Event_t, %struct.req_list, ptr, ptr, ptr, ptr, i32, ptr }
%struct.recv_envelope_list = type { ptr, %struct.envelope }
%struct.envelope = type { i32, ptr, ptr, ptr, ptr, i64, ptr, i32, %struct.tMPI_Atomic, i32, ptr, ptr, i32, ptr, ptr, ptr, ptr }
%struct.free_envelope_list = type { ptr, ptr }
%struct.tMPI_Event_t = type { %struct.tMPI_Atomic, i32 }
%struct.req_list = type { ptr, ptr }

@_ZL14tmpi_finalized = internal global i32 0, align 4

; Function Attrs: mustprogress uwtable
define internal noundef ptr @_ZL17tMPI_Thread_startPv(ptr noundef %0) #0 {
  %2 = alloca ptr, align 8
  %3 = alloca ptr, align 8
  %4 = alloca i32, align 4
  %5 = alloca ptr, align 8
  %6 = alloca i32, align 4
  store ptr %0, ptr %3, align 8, !tbaa !60
  call void @llvm.lifetime.start.p0(i64 4, ptr %4) #11
  call void @llvm.lifetime.start.p0(i64 8, ptr %5) #11
  %7 = load ptr, ptr %3, align 8, !tbaa !60
  store ptr %7, ptr %5, align 8, !tbaa !34
  %8 = load ptr, ptr %5, align 8, !tbaa !34
  %9 = call noundef i32 @_ZL16tMPI_Thread_initP11tmpi_thread(ptr noundef %8)
  store i32 %9, ptr %4, align 4, !tbaa !30
  %10 = load i32, ptr %4, align 4, !tbaa !30
  %11 = icmp ne i32 %10, 0
  br i1 %11, label %12, label %13

12:                                               ; preds = %1
  store ptr null, ptr %2, align 8
  store i32 1, ptr %6, align 4
  br label %42

13:                                               ; preds = %1
  %14 = load ptr, ptr %5, align 8, !tbaa !34
  %15 = getelementptr inbounds nuw %struct.tmpi_thread, ptr %14, i32 0, i32 8
  %16 = load ptr, ptr %15, align 8, !tbaa !71
  %17 = icmp ne ptr %16, null
  br i1 %17, label %29, label %18

18:                                               ; preds = %13
  %19 = load ptr, ptr %5, align 8, !tbaa !34
  %20 = getelementptr inbounds nuw %struct.tmpi_thread, ptr %19, i32 0, i32 9
  %21 = load ptr, ptr %20, align 8, !tbaa !72
  %22 = load ptr, ptr %5, align 8, !tbaa !34
  %23 = getelementptr inbounds nuw %struct.tmpi_thread, ptr %22, i32 0, i32 11
  %24 = load i32, ptr %23, align 8, !tbaa !68
  %25 = load ptr, ptr %5, align 8, !tbaa !34
  %26 = getelementptr inbounds nuw %struct.tmpi_thread, ptr %25, i32 0, i32 12
  %27 = load ptr, ptr %26, align 8, !tbaa !69
  %28 = call noundef i32 %21(i32 noundef %24, ptr noundef %27)
  br label %41

29:                                               ; preds = %13
  %30 = load ptr, ptr %5, align 8, !tbaa !34
  %31 = getelementptr inbounds nuw %struct.tmpi_thread, ptr %30, i32 0, i32 8
  %32 = load ptr, ptr %31, align 8, !tbaa !71
  %33 = load ptr, ptr %5, align 8, !tbaa !34
  %34 = getelementptr inbounds nuw %struct.tmpi_thread, ptr %33, i32 0, i32 10
  %35 = load ptr, ptr %34, align 8, !tbaa !73
  call void %32(ptr noundef %35)
  %36 = load i32, ptr @_ZL14tmpi_finalized, align 4, !tbaa !30
  %37 = icmp ne i32 %36, 0
  br i1 %37, label %40, label %38

38:                                               ; preds = %29
  %39 = call noundef i32 @_Z13tMPI_Finalizev()
  br label %40

40:                                               ; preds = %38, %29
  br label %41

41:                                               ; preds = %40, %18
  store ptr null, ptr %2, align 8
  store i32 1, ptr %6, align 4
  br label %42

42:                                               ; preds = %41, %12
  call void @llvm.lifetime.end.p0(i64 8, ptr %5) #11
  call void @llvm.lifetime.end.p0(i64 4, ptr %4) #11
  %43 = load ptr, ptr %2, align 8
  ret ptr %43
}