; Function Attrs: mustprogress uwtable
define internal noundef ptr @_ZL17tMPI_Thread_startPv(ptr noundef %0) #0 {
  %2 = tail call fastcc noundef i32 @_ZL16tMPI_Thread_initP11tmpi_thread(ptr noundef %0)
  %.not = icmp eq i32 %2, 0
  br i1 %.not, label %3, label %19

3:                                                ; preds = %1
  %4 = getelementptr inbounds nuw i8, ptr %0, i64 384
  %5 = load ptr, ptr %4, align 8, !tbaa !63
  %.not9 = icmp eq ptr %5, null
  br i1 %.not9, label %6, label %14

6:                                                ; preds = %3
  %7 = getelementptr inbounds nuw i8, ptr %0, i64 392
  %8 = load ptr, ptr %7, align 8, !tbaa !64
  %9 = getelementptr inbounds nuw i8, ptr %0, i64 408
  %10 = load i32, ptr %9, align 8, !tbaa !60
  %11 = getelementptr inbounds nuw i8, ptr %0, i64 416
  %12 = load ptr, ptr %11, align 8, !tbaa !61
  %13 = tail call noundef i32 %8(i32 noundef %10, ptr noundef %12)
  br label %19

14:                                               ; preds = %3
  %15 = getelementptr inbounds nuw i8, ptr %0, i64 400
  %16 = load ptr, ptr %15, align 8, !tbaa !65
  tail call void %5(ptr noundef %16)
  %.b = load i1, ptr @_ZL14tmpi_finalized, align 4
  br i1 %.b, label %19, label %17

17:                                               ; preds = %14
  %18 = tail call noundef i32 @_Z13tMPI_Finalizev()
  br label %19

19:                                               ; preds = %6, %17, %14, %1
  ret ptr null
}